target datalayout = "e-m:e-p270:32:32-p271:32:32-p272:64:64-i64:64-i128:128-f80:128-n8:16:32:64-S128"
target triple = "x86_64-pc-linux-gnu"

%struct.redisServer = type { i32, i64, ptr, ptr, ptr, i32, i32, i32, i32, i32, ptr, ptr, ptr, ptr, ptr, i32, i32, i32, i32, i64, i32, i32, i32, i32, ptr, i32, i32, [41 x i8], i32, i64, i32, i32, i32, ptr, ptr, i32, i32, i64, ptr, ptr, ptr, ptr, [2 x i32], i32, i32, i32, i32, i32, i32, [16 x ptr], i32, ptr, ptr, i32, [8 x %struct.connListener], i32, %struct.connListener, ptr, ptr, ptr, ptr, ptr, ptr, ptr, ptr, ptr, ptr, i32, ptr, i32, ptr, [3 x %struct.pause_event], [256 x i8], ptr, i64, i32, i32, [128 x i32], i32, i32, i64, i32, i32, i32, i32, i32, i64, i64, i64, i64, i64, i64, i64, i64, i64, i64, double, i64, i64, i64, i64, i64, i64, i64, i64, i64, i64, i64, i64, i64, i64, i64, i64, i64, i64, i64, i64, i64, double, i64, i64, i64, i64, i64, ptr, i64, i64, i64, %struct.malloc_stats, i64, i64, i64, i64, i64, i64, i64, i64, i64, i64, i64, i64, double, [4 x i64], i64, i64, i64, i64, [128 x i64], [128 x i64], i64, i64, [7 x %struct.anon], i64, i64, i64, i64, i64, i64, [4 x %struct.durationStats], i32, i32, i32, i32, i32, i32, i32, i32, i32, i32, i32, i32, i64, i32, i32, i32, i32, i64, i64, i32, i32, i32, i32, i32, ptr, [3 x %struct.clientBufferLimitsConfig], i32, i32, i32, ptr, i32, i32, i32, i32, i32, i32, ptr, ptr, i32, i32, i64, i64, i64, i64, i64, i32, i32, ptr, i32, i32, i64, i64, i64, i64, i64, i32, i32, i64, i32, i32, i32, i32, i32, i32, i32, i32, ptr, i32, i64, i64, i64, i64, i32, ptr, i32, ptr, i32, i32, i32, i64, i64, i64, i64, i32, i32, i32, i32, i32, i32, ptr, i32, i32, ptr, i32, i32, i32, [2 x i32], i32, %struct.redisOpArray, i32, ptr, i32, ptr, i32, i32, i32, i32, i32, i32, i32, [41 x i8], [41 x i8], i64, i64, i64, i64, i32, i32, ptr, i64, i64, %struct.replDataBuf, i64, i64, i32, i32, i32, i32, i32, i32, i32, i32, i32, i64, ptr, i64, ptr, ptr, ptr, i32, i32, ptr, ptr, i32, i32, i32, i64, i64, i64, i64, ptr, ptr, i32, ptr, i64, i32, i32, i32, i64, i32, i32, i32, i32, ptr, i32, i32, [41 x i8], i64, i32, ptr, i32, i32, i64, i64, i32, i32, i32, i32, i32, i64, [3 x i32], i32, i32, i32, [10 x i32], ptr, ptr, i32, i64, ptr, ptr, i32, i32, i32, i32, i64, i64, i64, i64, i64, i64, i64, i64, i64, i64, i32, i32, i64, i64, i32, i64, i64, i64, i64, i64, ptr, ptr, i32, ptr, i32, i32, i32, i32, i64, i64, ptr, ptr, i32, i32, i32, i32, i32, ptr, ptr, ptr, i32, i32, i32, i32, i32, i32, i32, i64, i32, i32, i64, i32, i32, i32, i32, i32, i32, i32, i64, ptr, ptr, i64, ptr, i32, %struct.aclInfo, i32, i64, i32, i32, i32, %struct.redisTLSContextConfig, ptr, ptr, ptr, ptr, ptr, i64, i32, ptr, i32, i32, i32, i64, i32, ptr }
%struct.connListener = type { [16 x i32], i32, ptr, i32, i32, ptr, ptr }
%struct.pause_event = type { i32, i64 }
%struct.malloc_stats = type { i64, i64, i64, i64, i64, i64, i64, i64, i64, i64, i64 }
%struct.anon = type { i64, i64, [16 x i64], i32 }
%struct.durationStats = type { i64, i64, i64 }
%struct.clientBufferLimitsConfig = type { i64, i64, i64 }
%struct.redisOpArray = type { ptr, i32, i32 }
%struct.replDataBuf = type { ptr, i64, i64, i64, i64 }
%struct.aclInfo = type { i64, i64, i64, i64 }
%struct.redisTLSContextConfig = type { ptr, ptr, ptr, ptr, ptr, ptr, ptr, ptr, ptr, ptr, ptr, ptr, i32, i32, i32, i32 }
%struct.rdbSaveInfo = type { i32, i32, [41 x i8], i64 }

@server = external global %struct.redisServer, align 8
@.str.24 = private unnamed_addr constant [10 x i8] c"redis-ver\00", align 1
@.str.25 = private unnamed_addr constant [12 x i8] c"255.255.255\00", align 1
@.str.26 = private unnamed_addr constant [11 x i8] c"redis-bits\00", align 1
@.str.27 = private unnamed_addr constant [6 x i8] c"ctime\00", align 1
@.str.28 = private unnamed_addr constant [9 x i8] c"used-mem\00", align 1
@.str.29 = private unnamed_addr constant [15 x i8] c"repl-stream-db\00", align 1
@.str.30 = private unnamed_addr constant [8 x i8] c"repl-id\00", align 1
@.str.31 = private unnamed_addr constant [12 x i8] c"repl-offset\00", align 1
@.str.32 = private unnamed_addr constant [9 x i8] c"aof-base\00", align 1

; Function Attrs: nounwind uwtable
define dso_local i32 @rdbSaveInfoAuxFields(ptr noundef %0, i32 noundef %1, ptr noundef %2) #0 {
  %4 = alloca i32, align 4
  %5 = alloca ptr, align 8
  %6 = alloca i32, align 4
  %7 = alloca ptr, align 8
  %8 = alloca i32, align 4
  %9 = alloca i32, align 4
  %10 = alloca i32, align 4
  store ptr %0, ptr %5, align 8, !tbaa !53
  store i32 %1, ptr %6, align 4, !tbaa !5
  store ptr %2, ptr %7, align 8, !tbaa !179
  call void @llvm.lifetime.start.p0(i64 4, ptr %8) #15
  store i32 64, ptr %8, align 4, !tbaa !5
  call void @llvm.lifetime.start.p0(i64 4, ptr %9) #15
  %11 = load i32, ptr %6, align 4, !tbaa !5
  %12 = and i32 %11, 1
  %13 = icmp ne i32 %12, 0
  %14 = zext i1 %13 to i32
  store i32 %14, ptr %9, align 4, !tbaa !5
  %15 = load ptr, ptr %5, align 8, !tbaa !53
  %16 = call i64 @rdbSaveAuxFieldStrStr(ptr noundef %15, ptr noundef @.str.24, ptr noundef @.str.25)
  %17 = icmp eq i64 %16, -1
  br i1 %17, label %18, label %19

18:                                               ; preds = %3
  store i32 -1, ptr %4, align 4
  store i32 1, ptr %10, align 4
  br label %70

19:                                               ; preds = %3
  %20 = load ptr, ptr %5, align 8, !tbaa !53
  %21 = load i32, ptr %8, align 4, !tbaa !5
  %22 = sext i32 %21 to i64
  %23 = call i64 @rdbSaveAuxFieldStrInt(ptr noundef %20, ptr noundef @.str.26, i64 noundef %22)
  %24 = icmp eq i64 %23, -1
  br i1 %24, label %25, label %26

25:                                               ; preds = %19
  store i32 -1, ptr %4, align 4
  store i32 1, ptr %10, align 4
  br label %70

26:                                               ; preds = %19
  %27 = load ptr, ptr %5, align 8, !tbaa !53
  %28 = call i64 @time(ptr noundef null) #15
  %29 = call i64 @rdbSaveAuxFieldStrInt(ptr noundef %27, ptr noundef @.str.27, i64 noundef %28)
  %30 = icmp eq i64 %29, -1
  br i1 %30, label %31, label %32

31:                                               ; preds = %26
  store i32 -1, ptr %4, align 4
  store i32 1, ptr %10, align 4
  br label %70

32:                                               ; preds = %26
  %33 = load ptr, ptr %5, align 8, !tbaa !53
  %34 = call i64 @zmalloc_used_memory()
  %35 = call i64 @rdbSaveAuxFieldStrInt(ptr noundef %33, ptr noundef @.str.28, i64 noundef %34)
  %36 = icmp eq i64 %35, -1
  br i1 %36, label %37, label %38

37:                                               ; preds = %32
  store i32 -1, ptr %4, align 4
  store i32 1, ptr %10, align 4
  br label %70

38:                                               ; preds = %32
  %39 = load ptr, ptr %7, align 8, !tbaa !179
  %40 = icmp ne ptr %39, null
  br i1 %40, label %41, label %62

41:                                               ; preds = %38
  %42 = load ptr, ptr %5, align 8, !tbaa !53
  %43 = load ptr, ptr %7, align 8, !tbaa !179
  %44 = getelementptr inbounds nuw %struct.rdbSaveInfo, ptr %43, i32 0, i32 0
  %45 = load i32, ptr %44, align 8, !tbaa !181
  %46 = sext i32 %45 to i64
  %47 = call i64 @rdbSaveAuxFieldStrInt(ptr noundef %42, ptr noundef @.str.29, i64 noundef %46)
  %48 = icmp eq i64 %47, -1
  br i1 %48, label %49, label %50

49:                                               ; preds = %41
  store i32 -1, ptr %4, align 4
  store i32 1, ptr %10, align 4
  br label %70

50:                                               ; preds = %41
  %51 = load ptr, ptr %5, align 8, !tbaa !53
  %52 = call i64 @rdbSaveAuxFieldStrStr(ptr noundef %51, ptr noundef @.str.30, ptr noundef getelementptr inbounds nuw (%struct.redisServer, ptr @server, i32 0, i32 269))
  %53 = icmp eq i64 %52, -1
  br i1 %53, label %54, label %55

54:                                               ; preds = %50
  store i32 -1, ptr %4, align 4
  store i32 1, ptr %10, align 4
  br label %70

55:                                               ; preds = %50
  %56 = load ptr, ptr %5, align 8, !tbaa !53
  %57 = load i64, ptr getelementptr inbounds nuw (%struct.redisServer, ptr @server, i32 0, i32 271), align 8, !tbaa !183
  %58 = call i64 @rdbSaveAuxFieldStrInt(ptr noundef %56, ptr noundef @.str.31, i64 noundef %57)
  %59 = icmp eq i64 %58, -1
  br i1 %59, label %60, label %61

60:                                               ; preds = %55
  store i32 -1, ptr %4, align 4
  store i32 1, ptr %10, align 4
  br label %70

61:                                               ; preds = %55
  br label %62

62:                                               ; preds = %61, %38
  %63 = load ptr, ptr %5, align 8, !tbaa !53
  %64 = load i32, ptr %9, align 4, !tbaa !5
  %65 = sext i32 %64 to i64
  %66 = call i64 @rdbSaveAuxFieldStrInt(ptr noundef %63, ptr noundef @.str.32, i64 noundef %65)
  %67 = icmp eq i64 %66, -1
  br i1 %67, label %68, label %69

68:                                               ; preds = %62
  store i32 -1, ptr %4, align 4
  store i32 1, ptr %10, align 4
  br label %70

69:                                               ; preds = %62
  store i32 1, ptr %4, align 4
  store i32 1, ptr %10, align 4
  br label %70

70:                                               ; preds = %69, %68, %60, %54, %49, %37, %31, %25, %18
  call void @llvm.lifetime.end.p0(i64 4, ptr %9) #15
  call void @llvm.lifetime.end.p0(i64 4, ptr %8) #15
  %71 = load i32, ptr %4, align 4
  ret i32 %71
}