; Function Attrs: nounwind uwtable
define dso_local range(i32 -1, 2) i32 @rdbSaveInfoAuxFields(ptr noundef %0, i32 noundef %1, ptr noundef readonly captures(address_is_null) %2) local_unnamed_addr #0 {
  %4 = and i32 %1, 1
  %5 = tail call i64 @rdbSaveAuxFieldStrStr(ptr noundef %0, ptr noundef nonnull @.str.24, ptr noundef nonnull @.str.25)
  %6 = icmp eq i64 %5, -1
  br i1 %6, label %35, label %7

7:                                                ; preds = %3
  %8 = tail call i64 @rdbSaveAuxFieldStrInt(ptr noundef %0, ptr noundef nonnull @.str.26, i64 noundef 64)
  %9 = icmp eq i64 %8, -1
  br i1 %9, label %35, label %10

10:                                               ; preds = %7
  %11 = tail call i64 @time(ptr noundef null) #23
  %12 = tail call i64 @rdbSaveAuxFieldStrInt(ptr noundef %0, ptr noundef nonnull @.str.27, i64 noundef %11)
  %13 = icmp eq i64 %12, -1
  br i1 %13, label %35, label %14

14:                                               ; preds = %10
  %15 = tail call i64 @zmalloc_used_memory() #23
  %16 = tail call i64 @rdbSaveAuxFieldStrInt(ptr noundef %0, ptr noundef nonnull @.str.28, i64 noundef %15)
  %17 = icmp eq i64 %16, -1
  br i1 %17, label %35, label %18

18:                                               ; preds = %14
  %.not = icmp eq ptr %2, null
  br i1 %.not, label %31, label %19

19:                                               ; preds = %18
  %20 = load i32, ptr %2, align 8, !tbaa !149
  %21 = sext i32 %20 to i64
  %22 = tail call i64 @rdbSaveAuxFieldStrInt(ptr noundef %0, ptr noundef nonnull @.str.29, i64 noundef %21)
  %23 = icmp eq i64 %22, -1
  br i1 %23, label %35, label %24

24:                                               ; preds = %19
  %25 = tail call i64 @rdbSaveAuxFieldStrStr(ptr noundef %0, ptr noundef nonnull @.str.30, ptr noundef nonnull getelementptr inbounds nuw (i8, ptr @server, i64 6980))
  %26 = icmp eq i64 %25, -1
  br i1 %26, label %35, label %27

27:                                               ; preds = %24
  %28 = load i64, ptr getelementptr inbounds nuw (i8, ptr @server, i64 7064), align 8, !tbaa !151
  %29 = tail call i64 @rdbSaveAuxFieldStrInt(ptr noundef %0, ptr noundef nonnull @.str.31, i64 noundef %28)
  %30 = icmp eq i64 %29, -1
  br i1 %30, label %35, label %31

31:                                               ; preds = %27, %18
  %32 = zext nneg i32 %4 to i64
  %33 = tail call i64 @rdbSaveAuxFieldStrInt(ptr noundef %0, ptr noundef nonnull @.str.32, i64 noundef %32)
  %34 = icmp eq i64 %33, -1
  %. = select i1 %34, i32 -1, i32 1
  br label %35

35:                                               ; preds = %31, %27, %24, %19, %14, %10, %7, %3
  %.0 = phi i32 [ -1, %3 ], [ -1, %7 ], [ -1, %10 ], [ -1, %14 ], [ -1, %19 ], [ -1, %24 ], [ -1, %27 ], [ %., %31 ]
  ret i32 %.0
}